target datalayout = "e-m:e-p270:32:32-p271:32:32-p272:64:64-i64:64-i128:128-f80:128-n8:16:32:64-S128"
target triple = "x86_64-pc-linux-gnu"

%struct.tcb_s = type { ptr, ptr, ptr, i32, i8, i8, ptr, %union.entry_u, i8, i8, i8, ptr, i16, i16, i16, %struct.wdog_s, i64, ptr, ptr, ptr, %struct.sigset_s, %struct.sigset_s, %struct.sq_queue_s, %struct.sq_queue_s, %struct.siginfo, ptr, %struct.xcptcontext, [32 x i8] }
%union.entry_u = type { ptr }
%struct.wdog_s = type { ptr, i64, ptr, i64 }
%struct.sigset_s = type { [2 x i32] }
%struct.sq_queue_s = type { ptr, ptr }
%struct.siginfo = type { i8, i8, i8, %union.sigval, i32, i32, ptr }
%union.sigval = type { ptr }
%struct.xcptcontext = type { ptr, i64, i64, i64, [90 x i64] }
%struct.task_group_s = type { ptr, i32, i32, i8, i8, i8, ptr, ptr, i32, %struct.mutex_s, ptr, ptr, %struct.task_info_s, ptr, %struct.sq_queue_s, %struct.sq_queue_s, %struct.sigset_s, ptr, i64, ptr, %struct.filelist, %struct.mm_map_s }
%struct.mutex_s = type { %struct.sem_s, i32 }
%struct.sem_s = type { i16, i8, %struct.dq_queue_s, ptr }
%struct.dq_queue_s = type { ptr, ptr }
%struct.task_info_s = type { %struct.mutex_s, ptr, %struct.getopt_s, i32, %struct.streamlist }
%struct.getopt_s = type { ptr, i32, i32, i32, ptr, i8 }
%struct.streamlist = type { %struct.mutex_s, [3 x %struct.file_struct], ptr, ptr }
%struct.file_struct = type { ptr, %struct.rmutex_s, %struct.cookie_io_functions_t, ptr, ptr, ptr, ptr, ptr, [64 x i8], i16, i8, i8, [2 x i8] }
%struct.rmutex_s = type { %struct.mutex_s, i32 }
%struct.cookie_io_functions_t = type { ptr, ptr, ptr, ptr }
%struct.filelist = type { i8, i8, ptr }
%struct.mm_map_s = type { %struct.sq_queue_s, i64, %struct.rmutex_s }

; Function Attrs: nounwind uwtable
define void @mm_map_unlock() #0 {
  %1 = alloca ptr, align 8
  %2 = alloca ptr, align 8
  %3 = call ptr @nxsched_self()
  store ptr %3, ptr %1, align 8
  %4 = load ptr, ptr %1, align 8
  %5 = getelementptr inbounds %struct.tcb_s, ptr %4, i32 0, i32 2
  %6 = load ptr, ptr %5, align 16
  store ptr %6, ptr %2, align 8
  %7 = load ptr, ptr %2, align 8
  %8 = icmp eq ptr %7, null
  br i1 %8, label %9, label %10

9:                                                ; preds = %0
  br label %15

10:                                               ; preds = %0
  %11 = load ptr, ptr %2, align 8
  %12 = getelementptr inbounds %struct.task_group_s, ptr %11, i32 0, i32 21
  %13 = getelementptr inbounds %struct.mm_map_s, ptr %12, i32 0, i32 2
  %14 = call i32 @nxrmutex_unlock(ptr noundef %13)
  br label %15

15:                                               ; preds = %10, %9
  ret void
}